target datalayout = "e-m:e-p270:32:32-p271:32:32-p272:64:64-i64:64-i128:128-f80:128-n8:16:32:64-S128"
target triple = "x86_64-unknown-linux-gnu"

%class.approx_set = type { %class.approx_set_tpl }
%class.approx_set_tpl = type { i64 }
%"struct.q::instruction" = type { i32, ptr }
%"struct.q::filter" = type { %"struct.q::instruction", i32, %class.approx_set }

@.str.3 = private unnamed_addr constant [2 x i8] c" \00", align 1
@.str.4 = private unnamed_addr constant [2 x i8] c")\00", align 1
@.str.11 = private unnamed_addr constant [2 x i8] c"(\00", align 1

; Function Attrs: mustprogress uwtable
define linkonce_odr hidden noundef nonnull align 8 dereferenceable(8) ptr @_ZlsRSoRK10approx_set(ptr noundef nonnull align 8 dereferenceable(8) %out, ptr noundef nonnull align 8 dereferenceable(8) %s) #5 comdat {
entry:
  %out.addr = alloca ptr, align 8
  %s.addr = alloca ptr, align 8
  store ptr %out, ptr %out.addr, align 8
  store ptr %s, ptr %s.addr, align 8
  %0 = load ptr, ptr %s.addr, align 8
  %1 = load ptr, ptr %out.addr, align 8
  call void @_ZNK10approx_set7displayERSo(ptr noundef nonnull align 8 dereferenceable(8) %0, ptr noundef nonnull align 8 dereferenceable(8) %1)
  %2 = load ptr, ptr %out.addr, align 8
  ret ptr %2
}

; Function Attrs: mustprogress uwtable
define hidden void @_ZN1q14display_filterERSoPKcRKNS_6filterE(ptr noundef nonnull align 8 dereferenceable(8) %out, ptr noundef %op, ptr noundef nonnull align 8 dereferenceable(32) %instr) #5 {
entry:
  %out.addr = alloca ptr, align 8
  %op.addr = alloca ptr, align 8
  %instr.addr = alloca ptr, align 8
  store ptr %out, ptr %out.addr, align 8
  store ptr %op, ptr %op.addr, align 8
  store ptr %instr, ptr %instr.addr, align 8
  %0 = load ptr, ptr %out.addr, align 8
  %call = call noundef nonnull align 8 dereferenceable(8) ptr @_ZStlsISt11char_traitsIcEERSt13basic_ostreamIcT_ES5_PKc(ptr noundef nonnull align 8 dereferenceable(8) %0, ptr noundef @.str.11)
  %1 = load ptr, ptr %op.addr, align 8
  %call1 = call noundef nonnull align 8 dereferenceable(8) ptr @_ZStlsISt11char_traitsIcEERSt13basic_ostreamIcT_ES5_PKc(ptr noundef nonnull align 8 dereferenceable(8) %call, ptr noundef %1)
  %call2 = call noundef nonnull align 8 dereferenceable(8) ptr @_ZStlsISt11char_traitsIcEERSt13basic_ostreamIcT_ES5_PKc(ptr noundef nonnull align 8 dereferenceable(8) %call1, ptr noundef @.str.3)
  %2 = load ptr, ptr %instr.addr, align 8
  %m_reg = getelementptr inbounds %"struct.q::filter", ptr %2, i32 0, i32 1
  %3 = load i32, ptr %m_reg, align 8
  %call3 = call noundef nonnull align 8 dereferenceable(8) ptr @_ZNSolsEj(ptr noundef nonnull align 8 dereferenceable(8) %call2, i32 noundef %3)
  %call4 = call noundef nonnull align 8 dereferenceable(8) ptr @_ZStlsISt11char_traitsIcEERSt13basic_ostreamIcT_ES5_PKc(ptr noundef nonnull align 8 dereferenceable(8) %call3, ptr noundef @.str.3)
  %4 = load ptr, ptr %instr.addr, align 8
  %m_lbl_set = getelementptr inbounds %"struct.q::filter", ptr %4, i32 0, i32 2
  %call5 = call noundef nonnull align 8 dereferenceable(8) ptr @_ZlsRSoRK10approx_set(ptr noundef nonnull align 8 dereferenceable(8) %call4, ptr noundef nonnull align 8 dereferenceable(8) %m_lbl_set)
  %call6 = call noundef nonnull align 8 dereferenceable(8) ptr @_ZStlsISt11char_traitsIcEERSt13basic_ostreamIcT_ES5_PKc(ptr noundef nonnull align 8 dereferenceable(8) %call5, ptr noundef @.str.4)
  ret void
}