; Function Attrs: mustprogress uwtable
define hidden void @_ZN1q14display_filterERSoPKcRKNS_6filterE(ptr noundef nonnull align 8 dereferenceable(8) %out, ptr noundef %op, ptr noundef nonnull align 8 dereferenceable(32) %instr) local_unnamed_addr #4 {
entry:
  %call = tail call noundef nonnull align 8 dereferenceable(8) ptr @_ZStlsISt11char_traitsIcEERSt13basic_ostreamIcT_ES5_PKc(ptr noundef nonnull align 8 dereferenceable(8) %out, ptr noundef nonnull @.str.11)
  %call1 = tail call noundef nonnull align 8 dereferenceable(8) ptr @_ZStlsISt11char_traitsIcEERSt13basic_ostreamIcT_ES5_PKc(ptr noundef nonnull align 8 dereferenceable(8) %call, ptr noundef %op)
  %call2 = tail call noundef nonnull align 8 dereferenceable(8) ptr @_ZStlsISt11char_traitsIcEERSt13basic_ostreamIcT_ES5_PKc(ptr noundef nonnull align 8 dereferenceable(8) %call1, ptr noundef nonnull @.str.3)
  %m_reg = getelementptr inbounds i8, ptr %instr, i64 16
  %0 = load i32, ptr %m_reg, align 8
  %call3 = tail call noundef nonnull align 8 dereferenceable(8) ptr @_ZNSolsEj(ptr noundef nonnull align 8 dereferenceable(8) %call2, i32 noundef %0)
  %call4 = tail call noundef nonnull align 8 dereferenceable(8) ptr @_ZStlsISt11char_traitsIcEERSt13basic_ostreamIcT_ES5_PKc(ptr noundef nonnull align 8 dereferenceable(8) %call3, ptr noundef nonnull @.str.3)
  %m_lbl_set = getelementptr inbounds i8, ptr %instr, i64 24
  tail call void @_ZNK10approx_set7displayERSo(ptr noundef nonnull align 8 dereferenceable(8) %m_lbl_set, ptr noundef nonnull align 8 dereferenceable(8) %call4)
  %call6 = tail call noundef nonnull align 8 dereferenceable(8) ptr @_ZStlsISt11char_traitsIcEERSt13basic_ostreamIcT_ES5_PKc(ptr noundef nonnull align 8 dereferenceable(8) %call4, ptr noundef nonnull @.str.4)
  ret void
}